; Function Attrs: mustprogress uwtable
define void @_ZN10open_spiel10algorithms13InfostateNode10SwapParentESt10unique_ptrIS1_St14default_deleteIS1_EEPS1_i(ptr noundef nonnull writeonly align 8 captures(none) dereferenceable(240) %0, ptr noundef captures(none) %1, ptr noundef %2, i32 noundef %3) local_unnamed_addr #3 align 2 personality ptr @__gxx_personality_v0 {
  %5 = getelementptr inbounds nuw i8, ptr %2, i64 120
  %6 = sext i32 %3 to i64
  %7 = getelementptr inbounds nuw i8, ptr %2, i64 128
  %8 = load ptr, ptr %7, align 8
  %9 = load ptr, ptr %5, align 8
  %10 = ptrtoint ptr %8 to i64
  %11 = ptrtoint ptr %9 to i64
  %12 = sub i64 %10, %11
  %13 = ashr exact i64 %12, 3
  %.not.i.i = icmp ugt i64 %13, %6
  br i1 %.not.i.i, label %_ZNSt6vectorISt10unique_ptrIN10open_spiel10algorithms13InfostateNodeESt14default_deleteIS3_EESaIS6_EE2atEm.exit, label %14

14:                                               ; preds = %4
  tail call void (ptr, ...) @_ZSt24__throw_out_of_range_fmtPKcz(ptr noundef nonnull @.str.58, i64 noundef %6, i64 noundef %13) #21
  unreachable

_ZNSt6vectorISt10unique_ptrIN10open_spiel10algorithms13InfostateNodeESt14default_deleteIS3_EESaIS6_EE2atEm.exit: ; preds = %4
  %15 = getelementptr inbounds %"class.std::unique_ptr", ptr %9, i64 %6
  %16 = load ptr, ptr %1, align 8
  store ptr null, ptr %1, align 8
  %17 = load ptr, ptr %15, align 8
  store ptr %16, ptr %15, align 8
  %.not.i.i.i.i = icmp eq ptr %17, null
  br i1 %.not.i.i.i.i, label %_ZNSt10unique_ptrIN10open_spiel10algorithms13InfostateNodeESt14default_deleteIS2_EEaSEOS5_.exit, label %_ZNKSt14default_deleteIN10open_spiel10algorithms13InfostateNodeEEclEPS2_.exit.i.i.i.i

_ZNKSt14default_deleteIN10open_spiel10algorithms13InfostateNodeEEclEPS2_.exit.i.i.i.i: ; preds = %_ZNSt6vectorISt10unique_ptrIN10open_spiel10algorithms13InfostateNodeESt14default_deleteIS3_EESaIS6_EE2atEm.exit
  tail call void @_ZN10open_spiel10algorithms13InfostateNodeD2Ev(ptr noundef nonnull align 8 dereferenceable(240) %17) #22
  tail call void @_ZdlPvm(ptr noundef nonnull %17, i64 noundef 240) #23
  br label %_ZNSt10unique_ptrIN10open_spiel10algorithms13InfostateNodeESt14default_deleteIS2_EEaSEOS5_.exit

_ZNSt10unique_ptrIN10open_spiel10algorithms13InfostateNodeESt14default_deleteIS2_EEaSEOS5_.exit: ; preds = %_ZNSt6vectorISt10unique_ptrIN10open_spiel10algorithms13InfostateNodeESt14default_deleteIS3_EESaIS6_EE2atEm.exit, %_ZNKSt14default_deleteIN10open_spiel10algorithms13InfostateNodeEEclEPS2_.exit.i.i.i.i
  %18 = getelementptr inbounds nuw i8, ptr %0, i64 8
  store ptr %2, ptr %18, align 8
  %19 = getelementptr inbounds nuw i8, ptr %0, i64 16
  store i32 %3, ptr %19, align 8
  ret void
}